	.file	"kmutex.c"
	.text
.Ltext0:
	.type	equals, @function
equals:
.LFB0:
	.file 1 "include/util/debug.h"
	.loc 1 281 0
	.cfi_startproc
	pushq	%rbp
	.cfi_def_cfa_offset 16
	.cfi_offset 6, -16
	movq	%rsp, %rbp
	.cfi_def_cfa_register 6
	subq	$16, %rsp
	movq	%rdi, -8(%rbp)
	movq	%rsi, -16(%rbp)
	.loc 1 282 0
	movq	-8(%rbp), %rax
	cmpq	-16(%rbp), %rax
	sete	%al
	movzbl	%al, %eax
	.loc 1 283 0
	leave
	.cfi_restore 6
	.cfi_def_cfa 7, 8
	ret
	.cfi_endproc
.LFE0:
	.size	equals, .-equals
	.type	notequals, @function
notequals:
.LFB1:
	.loc 1 285 0
	.cfi_startproc
	pushq	%rbp
	.cfi_def_cfa_offset 16
	.cfi_offset 6, -16
	movq	%rsp, %rbp
	.cfi_def_cfa_register 6
	subq	$16, %rsp
	movq	%rdi, -8(%rbp)
	movq	%rsi, -16(%rbp)
	.loc 1 285 0
	movq	-8(%rbp), %rax
	cmpq	-16(%rbp), %rax
	setne	%al
	movzbl	%al, %eax
	leave
	.cfi_restore 6
	.cfi_def_cfa 7, 8
	ret
	.cfi_endproc
.LFE1:
	.size	notequals, .-notequals
	.type	lessthan, @function
lessthan:
.LFB2:
	.loc 1 287 0
	.cfi_startproc
	pushq	%rbp
	.cfi_def_cfa_offset 16
	.cfi_offset 6, -16
	movq	%rsp, %rbp
	.cfi_def_cfa_register 6
	subq	$16, %rsp
	movq	%rdi, -8(%rbp)
	movq	%rsi, -16(%rbp)
	.loc 1 287 0
	movq	-8(%rbp), %rax
	cmpq	-16(%rbp), %rax
	setl	%al
	movzbl	%al, %eax
	leave
	.cfi_restore 6
	.cfi_def_cfa 7, 8
	ret
	.cfi_endproc
.LFE2:
	.size	lessthan, .-lessthan
	.type	greaterthan, @function
greaterthan:
.LFB3:
	.loc 1 289 0
	.cfi_startproc
	pushq	%rbp
	.cfi_def_cfa_offset 16
	.cfi_offset 6, -16
	movq	%rsp, %rbp
	.cfi_def_cfa_register 6
	subq	$16, %rsp
	movq	%rdi, -8(%rbp)
	movq	%rsi, -16(%rbp)
	.loc 1 289 0
	movq	-8(%rbp), %rax
	cmpq	-16(%rbp), %rax
	setg	%al
	movzbl	%al, %eax
	leave
	.cfi_restore 6
	.cfi_def_cfa 7, 8
	ret
	.cfi_endproc
.LFE3:
	.size	greaterthan, .-greaterthan
	.type	lessthaneq, @function
lessthaneq:
.LFB4:
	.loc 1 291 0
	.cfi_startproc
	pushq	%rbp
	.cfi_def_cfa_offset 16
	.cfi_offset 6, -16
	movq	%rsp, %rbp
	.cfi_def_cfa_register 6
	subq	$16, %rsp
	movq	%rdi, -8(%rbp)
	movq	%rsi, -16(%rbp)
	.loc 1 291 0
	movq	-8(%rbp), %rax
	cmpq	-16(%rbp), %rax
	setle	%al
	movzbl	%al, %eax
	leave
	.cfi_restore 6
	.cfi_def_cfa 7, 8
	ret
	.cfi_endproc
.LFE4:
	.size	lessthaneq, .-lessthaneq
	.type	greaterthaneq, @function
greaterthaneq:
.LFB5:
	.loc 1 293 0
	.cfi_startproc
	pushq	%rbp
	.cfi_def_cfa_offset 16
	.cfi_offset 6, -16
	movq	%rsp, %rbp
	.cfi_def_cfa_register 6
	subq	$16, %rsp
	movq	%rdi, -8(%rbp)
	movq	%rsi, -16(%rbp)
	.loc 1 293 0
	movq	-8(%rbp), %rax
	cmpq	-16(%rbp), %rax
	setge	%al
	movzbl	%al, %eax
	leave
	.cfi_restore 6
	.cfi_def_cfa 7, 8
	ret
	.cfi_endproc
.LFE5:
	.size	greaterthaneq, .-greaterthaneq
	.type	intr_enabled, @function
intr_enabled:
.LFB6:
	.file 2 "include/main/interrupt.h"
	.loc 2 83 0
	.cfi_startproc
	pushq	%rbp
	.cfi_def_cfa_offset 16
	.cfi_offset 6, -16
	movq	%rsp, %rbp
	.cfi_def_cfa_register 6
	subq	$16, %rsp
	.loc 2 85 0
#APP
# 85 "include/main/interrupt.h" 1
	pushf; pop %rax; and $0x200, %rax;
# 0 "" 2
#NO_APP
	movq	%rax, -8(%rbp)
	.loc 2 87 0
	movq	-8(%rbp), %rax
	.loc 2 88 0
	leave
	.cfi_restore 6
	.cfi_def_cfa 7, 8
	ret
	.cfi_endproc
.LFE6:
	.size	intr_enabled, .-intr_enabled
	.type	intr_enable, @function
intr_enable:
.LFB7:
	.loc 2 90 0
	.cfi_startproc
	pushq	%rbp
	.cfi_def_cfa_offset 16
	.cfi_offset 6, -16
	movq	%rsp, %rbp
	.cfi_def_cfa_register 6
	.loc 2 90 0
#APP
# 90 "include/main/interrupt.h" 1
	sti
# 0 "" 2
#NO_APP
	nop
	popq	%rbp
	.cfi_restore 6
	.cfi_def_cfa 7, 8
	ret
	.cfi_endproc
.LFE7:
	.size	intr_enable, .-intr_enable
	.type	intr_disable, @function
intr_disable:
.LFB8:
	.loc 2 92 0
	.cfi_startproc
	pushq	%rbp
	.cfi_def_cfa_offset 16
	.cfi_offset 6, -16
	movq	%rsp, %rbp
	.cfi_def_cfa_register 6
	.loc 2 92 0
#APP
# 92 "include/main/interrupt.h" 1
	cli
# 0 "" 2
#NO_APP
	nop
	popq	%rbp
	.cfi_restore 6
	.cfi_def_cfa 7, 8
	ret
	.cfi_endproc
.LFE8:
	.size	intr_disable, .-intr_disable
	.type	intr_wait, @function
intr_wait:
.LFB9:
	.loc 2 99 0
	.cfi_startproc
	pushq	%rbp
	.cfi_def_cfa_offset 16
	.cfi_offset 6, -16
	movq	%rsp, %rbp
	.cfi_def_cfa_register 6
	.loc 2 106 0
#APP
# 106 "include/main/interrupt.h" 1
	sti; hlt
# 0 "" 2
	.loc 2 107 0
#NO_APP
	nop
	popq	%rbp
	.cfi_restore 6
	.cfi_def_cfa 7, 8
	ret
	.cfi_endproc
.LFE9:
	.size	intr_wait, .-intr_wait
	.section	.rodata
	.align 8
.LC0:
	.string	"detected deadlock between P%d and P%d (mutexes 0x%p, 0x%p)\n"
.LC1:
	.string	"proc/kmutex.c"
	.text
	.globl	detect_deadlocks
	.type	detect_deadlocks, @function
detect_deadlocks:
.LFB10:
	.file 3 "proc/kmutex.c"
	.loc 3 21 0
	.cfi_startproc
	pushq	%rbp
	.cfi_def_cfa_offset 16
	.cfi_offset 6, -16
	movq	%rsp, %rbp
	.cfi_def_cfa_register 6
	subq	$48, %rsp
	movq	%rdi, -40(%rbp)
.LBB10:
	.loc 3 23 0
	movabsq	$curthr, %rax
	movq	(%rax), %rax
	movq	136(%rax), %rax
	subq	$48, %rax
	movq	%rax, -8(%rbp)
	movq	-8(%rbp), %rax
	movq	48(%rax), %rax
	subq	$48, %rax
	movq	%rax, -16(%rbp)
	jmp	.L19
.L23:
.LBB11:
	.loc 3 25 0
	movq	-8(%rbp), %rax
	movq	(%rax), %rax
	subq	$120, %rax
	movq	%rax, -24(%rbp)
	movq	-24(%rbp), %rax
	movq	120(%rax), %rax
	subq	$120, %rax
	movq	%rax, -32(%rbp)
	jmp	.L20
.L22:
	.loc 3 27 0
	movq	-40(%rbp), %rax
	movq	32(%rax), %rax
	cmpq	%rax, -24(%rbp)
	jne	.L21
	.loc 3 29 0
	movq	-24(%rbp), %rax
	movq	72(%rax), %rax
	movl	(%rax), %edx
	movabsq	$curproc, %rax
	movq	(%rax), %rax
	movl	(%rax), %eax
	pushq	-40(%rbp)
	pushq	-8(%rbp)
	movl	%edx, %r9d
	movl	%eax, %r8d
	movabsq	$.LC0, %rcx
	movabsq	$__func__.1872, %rdx
	movl	$32, %esi
	movabsq	$.LC1, %rdi
	movl	$0, %eax
	movabsq	$dbg_panic, %r10
	call	*%r10
.LVL0:
.L21:
	.loc 3 25 0 discriminator 2
	movq	-32(%rbp), %rax
	movq	%rax, -24(%rbp)
	movq	-24(%rbp), %rax
	movq	120(%rax), %rax
	subq	$120, %rax
	movq	%rax, -32(%rbp)
.L20:
	.loc 3 25 0 is_stmt 0 discriminator 1
	movq	-24(%rbp), %rax
	leaq	120(%rax), %rdx
	movq	-8(%rbp), %rax
	cmpq	%rax, %rdx
	jne	.L22
.LBE11:
	.loc 3 23 0 is_stmt 1 discriminator 2
	movq	-16(%rbp), %rax
	movq	%rax, -8(%rbp)
	movq	-8(%rbp), %rax
	movq	48(%rax), %rax
	subq	$48, %rax
	movq	%rax, -16(%rbp)
.L19:
	.loc 3 23 0 is_stmt 0 discriminator 1
	movq	-8(%rbp), %rax
	leaq	48(%rax), %rdx
	movabsq	$curthr, %rax
	movq	(%rax), %rax
	addq	$136, %rax
	cmpq	%rax, %rdx
	jne	.L23
.LBE10:
	.loc 3 37 0 is_stmt 1
	nop
	leave
	.cfi_restore 6
	.cfi_def_cfa 7, 8
	ret
	.cfi_endproc
.LFE10:
	.size	detect_deadlocks, .-detect_deadlocks
	.globl	kmutex_init
	.type	kmutex_init, @function
kmutex_init:
.LFB11:
	.loc 3 43 0
	.cfi_startproc
	pushq	%rbp
	.cfi_def_cfa_offset 16
	.cfi_offset 6, -16
	movq	%rsp, %rbp
	.cfi_def_cfa_register 6
	subq	$16, %rsp
	movq	%rdi, -8(%rbp)
	.loc 3 44 0
	movq	-8(%rbp), %rax
	movq	$0, 32(%rax)
	.loc 3 45 0
	movq	-8(%rbp), %rax
	movq	%rax, %rdi
	movabsq	$sched_queue_init, %rax
	call	*%rax
.LVL1:
	.loc 3 46 0
	movq	-8(%rbp), %rax
	addq	$40, %rax
	movq	%rax, %rdi
	movabsq	$spinlock_init, %rax
	call	*%rax
.LVL2:
	.loc 3 47 0
	movq	-8(%rbp), %rax
	addq	$48, %rax
	movq	%rax, %rdi
	movabsq	$list_link_init, %rax
	call	*%rax
.LVL3:
	.loc 3 48 0
	nop
	leave
	.cfi_restore 6
	.cfi_def_cfa 7, 8
	ret
	.cfi_endproc
.LFE11:
	.size	kmutex_init, .-kmutex_init
	.section	.rodata
.LC2:
	.string	"%s"
.LC3:
	.string	"C%ld P%ld "
.LC4:
	.string	"%s:%d %s(): "
.LC5:
	.string	"locked mutex: %p\n"
.LC6:
	.string	"\033[0m"
	.align 8
.LC7:
	.string	"curthr && \"need thread context to lock mutex\""
.LC8:
	.string	"assertion failed: %s"
	.align 8
.LC9:
	.string	"!kmutex_owns_mutex(mtx) && \"already owner\""
.LC10:
	.string	"kmutex_owns_mutex(mtx)"
	.text
	.globl	kmutex_lock
	.type	kmutex_lock, @function
kmutex_lock:
.LFB12:
	.loc 3 59 0
	.cfi_startproc
	pushq	%rbp
	.cfi_def_cfa_offset 16
	.cfi_offset 6, -16
	movq	%rsp, %rbp
	.cfi_def_cfa_register 6
	subq	$48, %rsp
	movq	%rdi, -40(%rbp)
	.loc 3 61 0
	movabsq	$dbg_modes, %rax
	movq	(%rax), %rax
	andl	$16384, %eax
	testq	%rax, %rax
	je	.L26
.LBB12:
	.loc 3 61 0 is_stmt 0 discriminator 1
	movl	$0, %eax
	movabsq	$apic_initialized, %rdx
	call	*%rdx
.LVL4:
	testq	%rax, %rax
	je	.L27
	.loc 3 61 0 discriminator 2
	movl	$224, %edi
	movabsq	$intr_setipl, %rax
	call	*%rax
.LVL5:
	jmp	.L28
.L27:
	.loc 3 61 0 discriminator 3
	movl	$0, %eax
.L28:
	.loc 3 61 0 discriminator 5
	movb	%al, -1(%rbp)
	movabsq	$debug_lock, %rdi
	movabsq	$spinlock_lock, %rax
	call	*%rax
.LVL6:
	movl	$16384, %edi
	movabsq	$dbg_color, %rax
	call	*%rax
.LVL7:
	movq	%rax, %rsi
	movabsq	$.LC2, %rdi
	movl	$0, %eax
	movabsq	$dbg_print, %rdx
	call	*%rdx
.LVL8:
	movabsq	$curproc, %rax
	movq	(%rax), %rax
	testq	%rax, %rax
	je	.L29
	.loc 3 61 0 discriminator 6
	movabsq	$curproc, %rax
	movq	(%rax), %rax
	movl	(%rax), %eax
	cltq
	jmp	.L30
.L29:
	.loc 3 61 0 discriminator 7
	movq	$-1, %rax
.L30:
	.loc 3 61 0 discriminator 9
	movabsq	$curcore, %rdx
	movq	(%rdx), %rcx
	movq	%rax, %rdx
	movq	%rcx, %rsi
	movabsq	$.LC3, %rdi
	movl	$0, %eax
	movabsq	$dbg_print, %rcx
	call	*%rcx
.LVL9:
	movabsq	$__func__.1886, %rcx
	movl	$61, %edx
	movabsq	$.LC1, %rsi
	movabsq	$.LC4, %rdi
	movl	$0, %eax
	movabsq	$dbg_print, %r8
	call	*%r8
.LVL10:
	movq	-40(%rbp), %rax
	movq	%rax, %rsi
	movabsq	$.LC5, %rdi
	movl	$0, %eax
	movabsq	$dbg_print, %rdx
	call	*%rdx
.LVL11:
	movabsq	$.LC6, %rsi
	movabsq	$.LC2, %rdi
	movl	$0, %eax
	movabsq	$dbg_print, %rdx
	call	*%rdx
.LVL12:
	movabsq	$debug_lock, %rdi
	movabsq	$spinlock_unlock, %rax
	call	*%rax
.LVL13:
	movl	$0, %eax
	movabsq	$apic_initialized, %rdx
	call	*%rdx
.LVL14:
	testq	%rax, %rax
	je	.L26
	.loc 3 61 0 discriminator 10
	movzbl	-1(%rbp), %eax
	movl	%eax, %edi
	movabsq	$intr_setipl, %rax
	call	*%rax
.LVL15:
.L26:
.LBE12:
	.loc 3 62 0 is_stmt 1
	movq	-40(%rbp), %rax
	addq	$40, %rax
	movq	%rax, %rdi
	movabsq	$spinlock_lock, %rax
	call	*%rax
.LVL16:
	.loc 3 63 0
	movabsq	$curthr, %rax
	movq	(%rax), %rax
	testq	%rax, %rax
	jne	.L31
	.loc 3 63 0 is_stmt 0 discriminator 1
	movabsq	$.LC7, %r8
	movabsq	$.LC8, %rcx
	movabsq	$__func__.1886, %rdx
	movl	$63, %esi
	movabsq	$.LC1, %rdi
	movl	$0, %eax
	movabsq	$dbg_panic, %r9
	call	*%r9
.LVL17:
.L31:
	movq	-40(%rbp), %rax
	movq	%rax, -16(%rbp)
.LBB13:
.LBB14:
	.loc 3 118 0 is_stmt 1
	movabsq	$curthr, %rax
	movq	(%rax), %rax
	testq	%rax, %rax
	je	.L32
	movq	-16(%rbp), %rax
	movq	32(%rax), %rdx
	movabsq	$curthr, %rax
	movq	(%rax), %rax
	cmpq	%rax, %rdx
	jne	.L32
	movl	$1, %eax
	jmp	.L33
.L32:
	movl	$0, %eax
.L33:
	cltq
.LBE14:
.LBE13:
	.loc 3 64 0
	testq	%rax, %rax
	je	.L35
	.loc 3 64 0 is_stmt 0 discriminator 3
	movabsq	$.LC9, %r8
	movabsq	$.LC8, %rcx
	movabsq	$__func__.1886, %rdx
	movl	$64, %esi
	movabsq	$.LC1, %rdi
	movl	$0, %eax
	movabsq	$dbg_panic, %r9
	call	*%r9
.LVL18:
.L35:
	.loc 3 66 0 is_stmt 1
	movq	-40(%rbp), %rax
	movq	32(%rax), %rax
	testq	%rax, %rax
	je	.L36
	.loc 3 68 0
	movq	-40(%rbp), %rax
	movq	%rax, %rdi
	movabsq	$detect_deadlocks, %rax
	call	*%rax
.LVL19:
	.loc 3 69 0
	movq	-40(%rbp), %rax
	leaq	40(%rax), %rdx
	movq	-40(%rbp), %rax
	movq	%rdx, %rsi
	movq	%rax, %rdi
	movabsq	$sched_sleep_on, %rax
	call	*%rax
.LVL20:
	movq	-40(%rbp), %rax
	movq	%rax, -24(%rbp)
.LBB15:
.LBB16:
	.loc 3 118 0
	movabsq	$curthr, %rax
	movq	(%rax), %rax
	testq	%rax, %rax
	je	.L37
	movq	-24(%rbp), %rax
	movq	32(%rax), %rdx
	movabsq	$curthr, %rax
	movq	(%rax), %rax
	cmpq	%rax, %rdx
	jne	.L37
	movl	$1, %eax
	jmp	.L38
.L37:
	movl	$0, %eax
.L38:
	cltq
.LBE16:
.LBE15:
	.loc 3 70 0
	testq	%rax, %rax
	jne	.L41
	.loc 3 70 0 is_stmt 0 discriminator 1
	movabsq	$.LC10, %r8
	movabsq	$.LC8, %rcx
	movabsq	$__func__.1886, %rdx
	movl	$70, %esi
	movabsq	$.LC1, %rdi
	movl	$0, %eax
	movabsq	$dbg_panic, %r9
	call	*%r9
.LVL21:
.L36:
	.loc 3 74 0 is_stmt 1
	movabsq	$curthr, %rax
	movq	(%rax), %rdx
	movq	-40(%rbp), %rax
	movq	%rdx, 32(%rax)
	.loc 3 75 0
	movq	-40(%rbp), %rax
	leaq	48(%rax), %rdx
	movabsq	$curthr, %rax
	movq	(%rax), %rax
	addq	$136, %rax
	movq	%rdx, %rsi
	movq	%rax, %rdi
	movabsq	$list_insert_tail, %rax
	call	*%rax
.LVL22:
	.loc 3 76 0
	movq	-40(%rbp), %rax
	addq	$40, %rax
	movq	%rax, %rdi
	movabsq	$spinlock_unlock, %rax
	call	*%rax
.LVL23:
.L41:
	.loc 3 78 0
	nop
	leave
	.cfi_restore 6
	.cfi_def_cfa 7, 8
	ret
	.cfi_endproc
.LFE12:
	.size	kmutex_lock, .-kmutex_lock
	.section	.rodata
.LC11:
	.string	"unlocked mutex: %p\n"
	.align 8
.LC12:
	.string	"curthr && (curthr == mtx->km_holder) && \"unlocking a mutex we don\\'t own\""
.LC13:
	.string	"!kmutex_owns_mutex(mtx)"
	.text
	.globl	kmutex_unlock
	.type	kmutex_unlock, @function
kmutex_unlock:
.LFB13:
	.loc 3 91 0
	.cfi_startproc
	pushq	%rbp
	.cfi_def_cfa_offset 16
	.cfi_offset 6, -16
	movq	%rsp, %rbp
	.cfi_def_cfa_register 6
	subq	$32, %rsp
	movq	%rdi, -24(%rbp)
	.loc 3 92 0
	movabsq	$dbg_modes, %rax
	movq	(%rax), %rax
	andl	$16384, %eax
	testq	%rax, %rax
	je	.L43
.LBB17:
	.loc 3 92 0 is_stmt 0 discriminator 1
	movl	$0, %eax
	movabsq	$apic_initialized, %rdx
	call	*%rdx
.LVL24:
	testq	%rax, %rax
	je	.L44
	.loc 3 92 0 discriminator 2
	movl	$224, %edi
	movabsq	$intr_setipl, %rax
	call	*%rax
.LVL25:
	jmp	.L45
.L44:
	.loc 3 92 0 discriminator 3
	movl	$0, %eax
.L45:
	.loc 3 92 0 discriminator 5
	movb	%al, -1(%rbp)
	movabsq	$debug_lock, %rdi
	movabsq	$spinlock_lock, %rax
	call	*%rax
.LVL26:
	movl	$16384, %edi
	movabsq	$dbg_color, %rax
	call	*%rax
.LVL27:
	movq	%rax, %rsi
	movabsq	$.LC2, %rdi
	movl	$0, %eax
	movabsq	$dbg_print, %rdx
	call	*%rdx
.LVL28:
	movabsq	$curproc, %rax
	movq	(%rax), %rax
	testq	%rax, %rax
	je	.L46
	.loc 3 92 0 discriminator 6
	movabsq	$curproc, %rax
	movq	(%rax), %rax
	movl	(%rax), %eax
	cltq
	jmp	.L47
.L46:
	.loc 3 92 0 discriminator 7
	movq	$-1, %rax
.L47:
	.loc 3 92 0 discriminator 9
	movabsq	$curcore, %rdx
	movq	(%rdx), %rcx
	movq	%rax, %rdx
	movq	%rcx, %rsi
	movabsq	$.LC3, %rdi
	movl	$0, %eax
	movabsq	$dbg_print, %rcx
	call	*%rcx
.LVL29:
	movabsq	$__func__.1891, %rcx
	movl	$92, %edx
	movabsq	$.LC1, %rsi
	movabsq	$.LC4, %rdi
	movl	$0, %eax
	movabsq	$dbg_print, %r8
	call	*%r8
.LVL30:
	movq	-24(%rbp), %rax
	movq	%rax, %rsi
	movabsq	$.LC11, %rdi
	movl	$0, %eax
	movabsq	$dbg_print, %rdx
	call	*%rdx
.LVL31:
	movabsq	$.LC6, %rsi
	movabsq	$.LC2, %rdi
	movl	$0, %eax
	movabsq	$dbg_print, %rdx
	call	*%rdx
.LVL32:
	movabsq	$debug_lock, %rdi
	movabsq	$spinlock_unlock, %rax
	call	*%rax
.LVL33:
	movl	$0, %eax
	movabsq	$apic_initialized, %rdx
	call	*%rdx
.LVL34:
	testq	%rax, %rax
	je	.L43
	.loc 3 92 0 discriminator 10
	movzbl	-1(%rbp), %eax
	movl	%eax, %edi
	movabsq	$intr_setipl, %rax
	call	*%rax
.LVL35:
.L43:
.LBE17:
	.loc 3 93 0 is_stmt 1
	movq	-24(%rbp), %rax
	addq	$40, %rax
	movq	%rax, %rdi
	movabsq	$spinlock_lock, %rax
	call	*%rax
.LVL36:
	.loc 3 94 0
	movabsq	$curthr, %rax
	movq	(%rax), %rax
	testq	%rax, %rax
	je	.L48
	.loc 3 94 0 is_stmt 0 discriminator 2
	movq	-24(%rbp), %rax
	movq	32(%rax), %rdx
	movabsq	$curthr, %rax
	movq	(%rax), %rax
	cmpq	%rax, %rdx
	je	.L49
.L48:
	.loc 3 94 0 discriminator 3
	movabsq	$.LC12, %r8
	movabsq	$.LC8, %rcx
	movabsq	$__func__.1891, %rdx
	movl	$95, %esi
	movabsq	$.LC1, %rdi
	movl	$0, %eax
	movabsq	$dbg_panic, %r9
	call	*%r9
.LVL37:
.L49:
	.loc 3 96 0 is_stmt 1
	movq	-24(%rbp), %rax
	leaq	32(%rax), %rdx
	movq	-24(%rbp), %rax
	movq	%rdx, %rsi
	movq	%rax, %rdi
	movabsq	$sched_wakeup_on, %rax
	call	*%rax
.LVL38:
	movq	-24(%rbp), %rax
	movq	%rax, -16(%rbp)
.LBB18:
.LBB19:
	.loc 3 118 0
	movabsq	$curthr, %rax
	movq	(%rax), %rax
	testq	%rax, %rax
	je	.L50
	movq	-16(%rbp), %rax
	movq	32(%rax), %rdx
	movabsq	$curthr, %rax
	movq	(%rax), %rax
	cmpq	%rax, %rdx
	jne	.L50
	movl	$1, %eax
	jmp	.L51
.L50:
	movl	$0, %eax
.L51:
	cltq
.LBE19:
.LBE18:
	.loc 3 97 0
	testq	%rax, %rax
	je	.L53
	.loc 3 97 0 is_stmt 0 discriminator 1
	movabsq	$.LC13, %r8
	movabsq	$.LC8, %rcx
	movabsq	$__func__.1891, %rdx
	movl	$97, %esi
	movabsq	$.LC1, %rdi
	movl	$0, %eax
	movabsq	$dbg_panic, %r9
	call	*%r9
.LVL39:
.L53:
	.loc 3 98 0 is_stmt 1
	movq	-24(%rbp), %rax
	addq	$48, %rax
	movq	%rax, %rdi
	movabsq	$list_remove, %rax
	call	*%rax
.LVL40:
	.loc 3 99 0
	movq	-24(%rbp), %rax
	movq	32(%rax), %rax
	testq	%rax, %rax
	je	.L54
	.loc 3 100 0
	movq	-24(%rbp), %rax
	leaq	48(%rax), %rdx
	movq	-24(%rbp), %rax
	movq	32(%rax), %rax
	addq	$136, %rax
	movq	%rdx, %rsi
	movq	%rax, %rdi
	movabsq	$list_insert_tail, %rax
	call	*%rax
.LVL41:
.L54:
	.loc 3 101 0
	movq	-24(%rbp), %rax
	addq	$40, %rax
	movq	%rax, %rdi
	movabsq	$spinlock_unlock, %rax
	call	*%rax
.LVL42:
	.loc 3 102 0
	nop
	leave
	.cfi_restore 6
	.cfi_def_cfa 7, 8
	ret
	.cfi_endproc
.LFE13:
	.size	kmutex_unlock, .-kmutex_unlock
	.globl	kmutex_has_waiters
	.type	kmutex_has_waiters, @function
kmutex_has_waiters:
.LFB14:
	.loc 3 108 0
	.cfi_startproc
	pushq	%rbp
	.cfi_def_cfa_offset 16
	.cfi_offset 6, -16
	movq	%rsp, %rbp
	.cfi_def_cfa_register 6
	subq	$16, %rsp
	movq	%rdi, -8(%rbp)
	.loc 3 109 0
	movq	-8(%rbp), %rax
	movq	%rax, %rdi
	movabsq	$sched_queue_empty, %rax
	call	*%rax
.LVL43:
	testq	%rax, %rax
	sete	%al
	movzbl	%al, %eax
	.loc 3 111 0
	leave
	.cfi_restore 6
	.cfi_def_cfa 7, 8
	ret
	.cfi_endproc
.LFE14:
	.size	kmutex_has_waiters, .-kmutex_has_waiters
	.globl	kmutex_owns_mutex
	.type	kmutex_owns_mutex, @function
kmutex_owns_mutex:
.LFB15:
	.loc 3 117 0
	.cfi_startproc
	pushq	%rbp
	.cfi_def_cfa_offset 16
	.cfi_offset 6, -16
	movq	%rsp, %rbp
	.cfi_def_cfa_register 6
	subq	$8, %rsp
	movq	%rdi, -8(%rbp)
	.loc 3 118 0
	movabsq	$curthr, %rax
	movq	(%rax), %rax
	testq	%rax, %rax
	je	.L58
	.loc 3 118 0 is_stmt 0 discriminator 1
	movq	-8(%rbp), %rax
	movq	32(%rax), %rdx
	movabsq	$curthr, %rax
	movq	(%rax), %rax
	cmpq	%rax, %rdx
	jne	.L58
	.loc 3 118 0 discriminator 3
	movl	$1, %eax
	jmp	.L59
.L58:
	.loc 3 118 0 discriminator 4
	movl	$0, %eax
.L59:
	.loc 3 118 0 discriminator 6
	cltq
	.loc 3 119 0 is_stmt 1 discriminator 6
	leave
	.cfi_restore 6
	.cfi_def_cfa 7, 8
	ret
	.cfi_endproc
.LFE15:
	.size	kmutex_owns_mutex, .-kmutex_owns_mutex
	.section	.rodata
	.align 16
	.type	__func__.1872, @object
	.size	__func__.1872, 17
__func__.1872:
	.string	"detect_deadlocks"
	.align 8
	.type	__func__.1886, @object
	.size	__func__.1886, 12
__func__.1886:
	.string	"kmutex_lock"
	.align 8
	.type	__func__.1891, @object
	.size	__func__.1891, 14
__func__.1891:
	.string	"kmutex_unlock"
	.text
.Letext0:
	.file 4 "include/proc/spinlock.h"
	.file 5 "include/types.h"
	.file 6 "include/kernel.h"
	.file 7 "include/util/list.h"
	.file 8 "include/proc/sched.h"
	.file 9 "include/proc/kmutex.h"
	.file 10 "include/proc/kthread.h"
	.file 11 "include/vm/vmmap.h"
	.file 12 "include/proc/proc.h"
	.file 13 "include/mm/pagetable.h"
	.file 14 "include/proc/context.h"
	.file 15 "include/proc/core.h"
	.file 16 "include/main/smp.h"
	.file 17 "include/globals.h"
	.file 18 "include/main/apic.h"
	.section	.note.GNU-stack,"",@progbits
